; Function Attrs: mustprogress uwtable
define void @_ZNK8facebook5velox4core15LambdaTypedExpr9serializeEv(ptr noalias sret(%"struct.folly::dynamic") align 8 %agg.result, ptr nocapture noundef nonnull readonly align 8 dereferenceable(80) %this) unnamed_addr #0 align 2 personality ptr @__gxx_personality_v0 {
entry:
  %ref.tmp = alloca %"struct.folly::dynamic", align 8
  %ref.tmp8 = alloca %"struct.folly::dynamic", align 8
  tail call void @_ZNK8facebook5velox4core10ITypedExpr13serializeBaseESt17basic_string_viewIcSt11char_traitsIcEE(ptr sret(%"struct.folly::dynamic") align 8 %agg.result, ptr noundef nonnull align 8 dereferenceable(48) %this, i64 15, ptr nonnull @.str.10)
  %signature_ = getelementptr inbounds i8, ptr %this, i64 48
  %0 = load ptr, ptr %signature_, align 8
  %vtable = load ptr, ptr %0, align 8
  %vfn = getelementptr inbounds i8, ptr %vtable, i64 120
  %1 = load ptr, ptr %vfn, align 8
  invoke void %1(ptr nonnull sret(%"struct.folly::dynamic") align 8 %ref.tmp, ptr noundef nonnull align 8 dereferenceable(120) %0)
          to label %invoke.cont unwind label %lpad

invoke.cont:                                      ; preds = %entry
  %call6 = invoke noundef nonnull align 8 dereferenceable(40) ptr @_ZNR5folly7dynamicixENS_5RangeIPKcEE(ptr noundef nonnull align 8 dereferenceable(40) %agg.result, ptr nonnull @.str.16, ptr nonnull getelementptr inbounds ([10 x i8], ptr @.str.16, i64 0, i64 9))
          to label %invoke.cont5 unwind label %lpad3

invoke.cont5:                                     ; preds = %invoke.cont
  %call7 = call noundef nonnull align 8 dereferenceable(40) ptr @_ZN5folly7dynamicaSEOS0_(ptr noundef nonnull align 8 dereferenceable(40) %call6, ptr noundef nonnull align 8 dereferenceable(40) %ref.tmp) #26
  call void @_ZN5folly7dynamic7destroyEv(ptr noundef nonnull align 8 dereferenceable(40) %ref.tmp) #26
  %body_ = getelementptr inbounds i8, ptr %this, i64 64
  %2 = load ptr, ptr %body_, align 8
  %vtable10 = load ptr, ptr %2, align 8
  %3 = load ptr, ptr %vtable10, align 8
  invoke void %3(ptr nonnull sret(%"struct.folly::dynamic") align 8 %ref.tmp8, ptr noundef nonnull align 8 dereferenceable(8) %2)
          to label %invoke.cont12 unwind label %lpad

invoke.cont12:                                    ; preds = %invoke.cont5
  %call17 = invoke noundef nonnull align 8 dereferenceable(40) ptr @_ZNR5folly7dynamicixENS_5RangeIPKcEE(ptr noundef nonnull align 8 dereferenceable(40) %agg.result, ptr nonnull @.str.17, ptr nonnull getelementptr inbounds ([5 x i8], ptr @.str.17, i64 0, i64 4))
          to label %invoke.cont16 unwind label %lpad14

invoke.cont16:                                    ; preds = %invoke.cont12
  %call18 = call noundef nonnull align 8 dereferenceable(40) ptr @_ZN5folly7dynamicaSEOS0_(ptr noundef nonnull align 8 dereferenceable(40) %call17, ptr noundef nonnull align 8 dereferenceable(40) %ref.tmp8) #26
  call void @_ZN5folly7dynamic7destroyEv(ptr noundef nonnull align 8 dereferenceable(40) %ref.tmp8) #26
  ret void

lpad:                                             ; preds = %invoke.cont5, %entry
  %4 = landingpad { ptr, i32 }
          cleanup
  br label %ehcleanup

lpad3:                                            ; preds = %invoke.cont
  %5 = landingpad { ptr, i32 }
          cleanup
  call void @_ZN5folly7dynamic7destroyEv(ptr noundef nonnull align 8 dereferenceable(40) %ref.tmp) #26
  br label %ehcleanup

lpad14:                                           ; preds = %invoke.cont12
  %6 = landingpad { ptr, i32 }
          cleanup
  call void @_ZN5folly7dynamic7destroyEv(ptr noundef nonnull align 8 dereferenceable(40) %ref.tmp8) #26
  br label %ehcleanup

ehcleanup:                                        ; preds = %lpad14, %lpad3, %lpad
  %.pn = phi { ptr, i32 } [ %6, %lpad14 ], [ %4, %lpad ], [ %5, %lpad3 ]
  call void @_ZN5folly7dynamic7destroyEv(ptr noundef nonnull align 8 dereferenceable(40) %agg.result) #26
  resume { ptr, i32 } %.pn
}